(dp0
S'AllSample'
p1
(dp2
S'1'
p3
(dp4
S'mujets'
p5
(dp6
S'down'
p7
(dp8
g3
(dp9
((F-2.4
F2.4
tp10
(F300.0
F600.0
tp11
tp12
F0.08376278473278422
s((F-2.4
F2.4
tp13
(F600.0
F1000.0
tp14
tp15
F0.19242816194034193
s((F-2.4
F2.4
tp16
(F20.0
F30.0
tp17
tp18
F0.0
s((F-2.4
F2.4
tp19
(F70.0
F100.0
tp20
tp21
F0.12777763420827515
s((F-2.4
F2.4
tp22
(F140.0
F200.0
tp23
tp24
F0.11032619966548364
s((F-2.4
F2.4
tp25
(F100.0
F140.0
tp26
tp27
F0.11801298784996288
s((F-2.4
F2.4
tp28
(F200.0
F300.0
tp29
tp30
F0.1372952222928584
s((F-2.4
F2.4
tp31
(F30.0
F50.0
tp32
tp33
F0.11856031926310166
s((F-2.4
F2.4
tp34
(F50.0
F70.0
tp35
tp36
F0.1385751213974623
ssS'0'
p37
(dp38
((F-2.4
F2.4
tp39
(F300.0
F600.0
tp40
tp41
F0.5381057450473596
s((F-2.4
F2.4
tp42
(F600.0
F1000.0
tp43
tp44
F0.34856814435907396
s((F-2.4
F2.4
tp45
(F20.0
F30.0
tp46
tp47
F0.0
s((F-2.4
F2.4
tp48
(F70.0
F100.0
tp49
tp50
F0.6777716367249254
s((F-2.4
F2.4
tp51
(F140.0
F200.0
tp52
tp53
F0.6709665913026683
s((F-2.4
F2.4
tp54
(F100.0
F140.0
tp55
tp56
F0.6827515061982565
s((F-2.4
F2.4
tp57
(F200.0
F300.0
tp58
tp59
F0.49504009067473737
s((F-2.4
F2.4
tp60
(F30.0
F50.0
tp61
tp62
F0.6583625654750567
s((F-2.4
F2.4
tp63
(F50.0
F70.0
tp64
tp65
F0.6417957381614426
sssS'central'
p66
(dp67
g3
(dp68
((F-2.4
F2.4
tp69
(F20.0
F1000.0
tp70
tp71
F0.12604289548548636
ssg37
(dp72
((F-2.4
F2.4
tp73
(F20.0
F1000.0
tp74
tp75
F0.659135553651111
sssS'up'
p76
(dp77
g3
(dp78
((F-2.4
F2.4
tp79
(F300.0
F600.0
tp80
tp81
F0.08376278473278422
s((F-2.4
F2.4
tp82
(F600.0
F1000.0
tp83
tp84
F0.19242816194034193
s((F-2.4
F2.4
tp85
(F20.0
F30.0
tp86
tp87
F0.0
s((F-2.4
F2.4
tp88
(F70.0
F100.0
tp89
tp90
F0.12777763420827515
s((F-2.4
F2.4
tp91
(F140.0
F200.0
tp92
tp93
F0.11032619966548364
s((F-2.4
F2.4
tp94
(F100.0
F140.0
tp95
tp96
F0.11801298784996288
s((F-2.4
F2.4
tp97
(F200.0
F300.0
tp98
tp99
F0.1372952222928584
s((F-2.4
F2.4
tp100
(F30.0
F50.0
tp101
tp102
F0.11856031926310166
s((F-2.4
F2.4
tp103
(F50.0
F70.0
tp104
tp105
F0.1385751213974623
ssg37
(dp106
((F-2.4
F2.4
tp107
(F300.0
F600.0
tp108
tp109
F0.5381057450473596
s((F-2.4
F2.4
tp110
(F600.0
F1000.0
tp111
tp112
F0.34856814435907396
s((F-2.4
F2.4
tp113
(F20.0
F30.0
tp114
tp115
F0.0
s((F-2.4
F2.4
tp116
(F70.0
F100.0
tp117
tp118
F0.6777716367249254
s((F-2.4
F2.4
tp119
(F140.0
F200.0
tp120
tp121
F0.6709665913026683
s((F-2.4
F2.4
tp122
(F100.0
F140.0
tp123
tp124
F0.6827515061982565
s((F-2.4
F2.4
tp125
(F200.0
F300.0
tp126
tp127
F0.49504009067473737
s((F-2.4
F2.4
tp128
(F30.0
F50.0
tp129
tp130
F0.6583625654750567
s((F-2.4
F2.4
tp131
(F50.0
F70.0
tp132
tp133
F0.6417957381614426
ssssS'comb'
p134
(dp135
S'down'
p136
(dp137
g3
(dp138
((F-2.4
F2.4
tp139
(F300.0
F600.0
tp140
tp141
F0.08376278473278422
s((F-2.4
F2.4
tp142
(F600.0
F1000.0
tp143
tp144
F0.19242816194034193
s((F-2.4
F2.4
tp145
(F20.0
F30.0
tp146
tp147
F0.0
s((F-2.4
F2.4
tp148
(F70.0
F100.0
tp149
tp150
F0.12777763420827515
s((F-2.4
F2.4
tp151
(F140.0
F200.0
tp152
tp153
F0.11032619966548364
s((F-2.4
F2.4
tp154
(F100.0
F140.0
tp155
tp156
F0.11801298784996288
s((F-2.4
F2.4
tp157
(F200.0
F300.0
tp158
tp159
F0.1372952222928584
s((F-2.4
F2.4
tp160
(F30.0
F50.0
tp161
tp162
F0.11856031926310166
s((F-2.4
F2.4
tp163
(F50.0
F70.0
tp164
tp165
F0.1385751213974623
ssg37
(dp166
((F-2.4
F2.4
tp167
(F300.0
F600.0
tp168
tp169
F0.5381057450473596
s((F-2.4
F2.4
tp170
(F600.0
F1000.0
tp171
tp172
F0.34856814435907396
s((F-2.4
F2.4
tp173
(F20.0
F30.0
tp174
tp175
F0.0
s((F-2.4
F2.4
tp176
(F70.0
F100.0
tp177
tp178
F0.6777716367249254
s((F-2.4
F2.4
tp179
(F140.0
F200.0
tp180
tp181
F0.6709665913026683
s((F-2.4
F2.4
tp182
(F100.0
F140.0
tp183
tp184
F0.6827515061982565
s((F-2.4
F2.4
tp185
(F200.0
F300.0
tp186
tp187
F0.49504009067473737
s((F-2.4
F2.4
tp188
(F30.0
F50.0
tp189
tp190
F0.6583625654750567
s((F-2.4
F2.4
tp191
(F50.0
F70.0
tp192
tp193
F0.6417957381614426
sssS'central'
p194
(dp195
g3
(dp196
((F-2.4
F2.4
tp197
(F20.0
F1000.0
tp198
tp199
F0.12604289548548636
ssg37
(dp200
((F-2.4
F2.4
tp201
(F20.0
F1000.0
tp202
tp203
F0.659135553651111
sssS'up'
p204
(dp205
g3
(dp206
((F-2.4
F2.4
tp207
(F300.0
F600.0
tp208
tp209
F0.08376278473278422
s((F-2.4
F2.4
tp210
(F600.0
F1000.0
tp211
tp212
F0.19242816194034193
s((F-2.4
F2.4
tp213
(F20.0
F30.0
tp214
tp215
F0.0
s((F-2.4
F2.4
tp216
(F70.0
F100.0
tp217
tp218
F0.12777763420827515
s((F-2.4
F2.4
tp219
(F140.0
F200.0
tp220
tp221
F0.11032619966548364
s((F-2.4
F2.4
tp222
(F100.0
F140.0
tp223
tp224
F0.11801298784996288
s((F-2.4
F2.4
tp225
(F200.0
F300.0
tp226
tp227
F0.1372952222928584
s((F-2.4
F2.4
tp228
(F30.0
F50.0
tp229
tp230
F0.11856031926310166
s((F-2.4
F2.4
tp231
(F50.0
F70.0
tp232
tp233
F0.1385751213974623
ssg37
(dp234
((F-2.4
F2.4
tp235
(F300.0
F600.0
tp236
tp237
F0.5381057450473596
s((F-2.4
F2.4
tp238
(F600.0
F1000.0
tp239
tp240
F0.34856814435907396
s((F-2.4
F2.4
tp241
(F20.0
F30.0
tp242
tp243
F0.0
s((F-2.4
F2.4
tp244
(F70.0
F100.0
tp245
tp246
F0.6777716367249254
s((F-2.4
F2.4
tp247
(F140.0
F200.0
tp248
tp249
F0.6709665913026683
s((F-2.4
F2.4
tp250
(F100.0
F140.0
tp251
tp252
F0.6827515061982565
s((F-2.4
F2.4
tp253
(F200.0
F300.0
tp254
tp255
F0.49504009067473737
s((F-2.4
F2.4
tp256
(F30.0
F50.0
tp257
tp258
F0.6583625654750567
s((F-2.4
F2.4
tp259
(F50.0
F70.0
tp260
tp261
F0.6417957381614426
ssssS'incl'
p262
(dp263
S'central'
p264
(dp265
S'2'
p266
(dp267
((F0.0
F2.4
tp268
(F20.0
F1000.0
tp269
tp270
F0.009709933880758023
sssS'down_correlated'
p271
(dp272
g266
(dp273
((F0.0
F2.4
tp274
(F20.0
F1000.0
tp275
tp276
F0.009709933880758023
sssS'down_uncorrelated'
p277
(dp278
g266
(dp279
((F0.0
F2.4
tp280
(F20.0
F1000.0
tp281
tp282
F0.009709933880758023
sssS'up'
p283
(dp284
g266
(dp285
((F0.0
F2.4
tp286
(F20.0
F1000.0
tp287
tp288
F0.009709933880758023
sssS'down'
p289
(dp290
g266
(dp291
((F0.0
F2.4
tp292
(F20.0
F1000.0
tp293
tp294
F0.009709933880758023
sssS'up_uncorrelated'
p295
(dp296
g266
(dp297
((F0.0
F2.4
tp298
(F20.0
F1000.0
tp299
tp300
F0.009709933880758023
sssS'up_correlated'
p301
(dp302
g266
(dp303
((F0.0
F2.4
tp304
(F20.0
F1000.0
tp305
tp306
F0.009709933880758023
sssssg37
(dp307
S'mujets'
p308
(dp309
S'down'
p310
(dp311
g3
(dp312
((F-2.4
F2.4
tp313
(F300.0
F600.0
tp314
tp315
F0.45544644426926206
s((F-2.4
F2.4
tp316
(F600.0
F1000.0
tp317
tp318
F0.1945167592393056
s((F-2.4
F2.4
tp319
(F20.0
F30.0
tp320
tp321
F0.0
s((F-2.4
F2.4
tp322
(F70.0
F100.0
tp323
tp324
F0.39247456285096816
s((F-2.4
F2.4
tp325
(F140.0
F200.0
tp326
tp327
F0.2759435504809026
s((F-2.4
F2.4
tp328
(F100.0
F140.0
tp329
tp330
F0.3814186675351113
s((F-2.4
F2.4
tp331
(F200.0
F300.0
tp332
tp333
F0.38321317858889375
s((F-2.4
F2.4
tp334
(F30.0
F50.0
tp335
tp336
F0.43270921558209646
s((F-2.4
F2.4
tp337
(F50.0
F70.0
tp338
tp339
F0.39590235331802154
ssg37
(dp340
((F-2.4
F2.4
tp341
(F300.0
F600.0
tp342
tp343
F0.8100792357512477
s((F-2.4
F2.4
tp344
(F600.0
F1000.0
tp345
tp346
F0.8517278590020588
s((F-2.4
F2.4
tp347
(F20.0
F30.0
tp348
tp349
F0.0
s((F-2.4
F2.4
tp350
(F70.0
F100.0
tp351
tp352
F0.8387342656025177
s((F-2.4
F2.4
tp353
(F140.0
F200.0
tp354
tp355
F0.8050193544908055
s((F-2.4
F2.4
tp356
(F100.0
F140.0
tp357
tp358
F0.8463775905462816
s((F-2.4
F2.4
tp359
(F200.0
F300.0
tp360
tp361
F0.6518753680454515
s((F-2.4
F2.4
tp362
(F30.0
F50.0
tp363
tp364
F0.8300751953483352
s((F-2.4
F2.4
tp365
(F50.0
F70.0
tp366
tp367
F0.8371437408231808
sssS'central'
p368
(dp369
g3
(dp370
((F-2.4
F2.4
tp371
(F20.0
F1000.0
tp372
tp373
F0.391233689821693
ssg37
(dp374
((F-2.4
F2.4
tp375
(F20.0
F1000.0
tp376
tp377
F0.8304630467653251
sssS'up'
p378
(dp379
g3
(dp380
((F-2.4
F2.4
tp381
(F300.0
F600.0
tp382
tp383
F0.45544644426926206
s((F-2.4
F2.4
tp384
(F600.0
F1000.0
tp385
tp386
F0.1945167592393056
s((F-2.4
F2.4
tp387
(F20.0
F30.0
tp388
tp389
F0.0
s((F-2.4
F2.4
tp390
(F70.0
F100.0
tp391
tp392
F0.39247456285096816
s((F-2.4
F2.4
tp393
(F140.0
F200.0
tp394
tp395
F0.2759435504809026
s((F-2.4
F2.4
tp396
(F100.0
F140.0
tp397
tp398
F0.3814186675351113
s((F-2.4
F2.4
tp399
(F200.0
F300.0
tp400
tp401
F0.38321317858889375
s((F-2.4
F2.4
tp402
(F30.0
F50.0
tp403
tp404
F0.43270921558209646
s((F-2.4
F2.4
tp405
(F50.0
F70.0
tp406
tp407
F0.39590235331802154
ssg37
(dp408
((F-2.4
F2.4
tp409
(F300.0
F600.0
tp410
tp411
F0.8100792357512477
s((F-2.4
F2.4
tp412
(F600.0
F1000.0
tp413
tp414
F0.8517278590020588
s((F-2.4
F2.4
tp415
(F20.0
F30.0
tp416
tp417
F0.0
s((F-2.4
F2.4
tp418
(F70.0
F100.0
tp419
tp420
F0.8387342656025177
s((F-2.4
F2.4
tp421
(F140.0
F200.0
tp422
tp423
F0.8050193544908055
s((F-2.4
F2.4
tp424
(F100.0
F140.0
tp425
tp426
F0.8463775905462816
s((F-2.4
F2.4
tp427
(F200.0
F300.0
tp428
tp429
F0.6518753680454515
s((F-2.4
F2.4
tp430
(F30.0
F50.0
tp431
tp432
F0.8300751953483352
s((F-2.4
F2.4
tp433
(F50.0
F70.0
tp434
tp435
F0.8371437408231808
ssssS'comb'
p436
(dp437
S'down'
p438
(dp439
g3
(dp440
((F-2.4
F2.4
tp441
(F300.0
F600.0
tp442
tp443
F0.45544644426926206
s((F-2.4
F2.4
tp444
(F600.0
F1000.0
tp445
tp446
F0.1945167592393056
s((F-2.4
F2.4
tp447
(F20.0
F30.0
tp448
tp449
F0.0
s((F-2.4
F2.4
tp450
(F70.0
F100.0
tp451
tp452
F0.39247456285096816
s((F-2.4
F2.4
tp453
(F140.0
F200.0
tp454
tp455
F0.2759435504809026
s((F-2.4
F2.4
tp456
(F100.0
F140.0
tp457
tp458
F0.3814186675351113
s((F-2.4
F2.4
tp459
(F200.0
F300.0
tp460
tp461
F0.38321317858889375
s((F-2.4
F2.4
tp462
(F30.0
F50.0
tp463
tp464
F0.43270921558209646
s((F-2.4
F2.4
tp465
(F50.0
F70.0
tp466
tp467
F0.39590235331802154
ssg37
(dp468
((F-2.4
F2.4
tp469
(F300.0
F600.0
tp470
tp471
F0.8100792357512477
s((F-2.4
F2.4
tp472
(F600.0
F1000.0
tp473
tp474
F0.8517278590020588
s((F-2.4
F2.4
tp475
(F20.0
F30.0
tp476
tp477
F0.0
s((F-2.4
F2.4
tp478
(F70.0
F100.0
tp479
tp480
F0.8387342656025177
s((F-2.4
F2.4
tp481
(F140.0
F200.0
tp482
tp483
F0.8050193544908055
s((F-2.4
F2.4
tp484
(F100.0
F140.0
tp485
tp486
F0.8463775905462816
s((F-2.4
F2.4
tp487
(F200.0
F300.0
tp488
tp489
F0.6518753680454515
s((F-2.4
F2.4
tp490
(F30.0
F50.0
tp491
tp492
F0.8300751953483352
s((F-2.4
F2.4
tp493
(F50.0
F70.0
tp494
tp495
F0.8371437408231808
sssS'central'
p496
(dp497
g3
(dp498
((F-2.4
F2.4
tp499
(F20.0
F1000.0
tp500
tp501
F0.391233689821693
ssg37
(dp502
((F-2.4
F2.4
tp503
(F20.0
F1000.0
tp504
tp505
F0.8304630467653251
sssS'up'
p506
(dp507
g3
(dp508
((F-2.4
F2.4
tp509
(F300.0
F600.0
tp510
tp511
F0.45544644426926206
s((F-2.4
F2.4
tp512
(F600.0
F1000.0
tp513
tp514
F0.1945167592393056
s((F-2.4
F2.4
tp515
(F20.0
F30.0
tp516
tp517
F0.0
s((F-2.4
F2.4
tp518
(F70.0
F100.0
tp519
tp520
F0.39247456285096816
s((F-2.4
F2.4
tp521
(F140.0
F200.0
tp522
tp523
F0.2759435504809026
s((F-2.4
F2.4
tp524
(F100.0
F140.0
tp525
tp526
F0.3814186675351113
s((F-2.4
F2.4
tp527
(F200.0
F300.0
tp528
tp529
F0.38321317858889375
s((F-2.4
F2.4
tp530
(F30.0
F50.0
tp531
tp532
F0.43270921558209646
s((F-2.4
F2.4
tp533
(F50.0
F70.0
tp534
tp535
F0.39590235331802154
ssg37
(dp536
((F-2.4
F2.4
tp537
(F300.0
F600.0
tp538
tp539
F0.8100792357512477
s((F-2.4
F2.4
tp540
(F600.0
F1000.0
tp541
tp542
F0.8517278590020588
s((F-2.4
F2.4
tp543
(F20.0
F30.0
tp544
tp545
F0.0
s((F-2.4
F2.4
tp546
(F70.0
F100.0
tp547
tp548
F0.8387342656025177
s((F-2.4
F2.4
tp549
(F140.0
F200.0
tp550
tp551
F0.8050193544908055
s((F-2.4
F2.4
tp552
(F100.0
F140.0
tp553
tp554
F0.8463775905462816
s((F-2.4
F2.4
tp555
(F200.0
F300.0
tp556
tp557
F0.6518753680454515
s((F-2.4
F2.4
tp558
(F30.0
F50.0
tp559
tp560
F0.8300751953483352
s((F-2.4
F2.4
tp561
(F50.0
F70.0
tp562
tp563
F0.8371437408231808
ssssS'incl'
p564
(dp565
S'central'
p566
(dp567
g266
(dp568
((F0.0
F2.4
tp569
(F20.0
F1000.0
tp570
tp571
F0.08929285765311526
sssS'down_correlated'
p572
(dp573
g266
(dp574
((F0.0
F2.4
tp575
(F20.0
F1000.0
tp576
tp577
F0.08929285765311526
sssS'down_uncorrelated'
p578
(dp579
g266
(dp580
((F0.0
F2.4
tp581
(F20.0
F1000.0
tp582
tp583
F0.08929285765311526
sssS'up'
p584
(dp585
g266
(dp586
((F0.0
F2.4
tp587
(F20.0
F1000.0
tp588
tp589
F0.08929285765311526
sssS'down'
p590
(dp591
g266
(dp592
((F0.0
F2.4
tp593
(F20.0
F1000.0
tp594
tp595
F0.08929285765311526
sssS'up_uncorrelated'
p596
(dp597
g266
(dp598
((F0.0
F2.4
tp599
(F20.0
F1000.0
tp600
tp601
F0.08929285765311526
sssS'up_correlated'
p602
(dp603
g266
(dp604
((F0.0
F2.4
tp605
(F20.0
F1000.0
tp606
tp607
F0.08929285765311526
sssssg266
(dp608
S'mujets'
p609
(dp610
S'down'
p611
(dp612
g3
(dp613
((F-2.4
F2.4
tp614
(F300.0
F600.0
tp615
tp616
F0.024353545909683912
s((F-2.4
F2.4
tp617
(F600.0
F1000.0
tp618
tp619
F0.024353545909683912
s((F-2.4
F2.4
tp620
(F20.0
F30.0
tp621
tp622
F0.0
s((F-2.4
F2.4
tp623
(F70.0
F100.0
tp624
tp625
F0.019454676373315185
s((F-2.4
F2.4
tp626
(F140.0
F200.0
tp627
tp628
F0.011300186576743306
s((F-2.4
F2.4
tp629
(F100.0
F140.0
tp630
tp631
F0.021068343828780107
s((F-2.4
F2.4
tp632
(F200.0
F300.0
tp633
tp634
F0.029476785055737146
s((F-2.4
F2.4
tp635
(F30.0
F50.0
tp636
tp637
F0.028830577489447572
s((F-2.4
F2.4
tp638
(F50.0
F70.0
tp639
tp640
F0.02193010265760388
ssg37
(dp641
((F-2.4
F2.4
tp642
(F300.0
F600.0
tp643
tp644
F0.3158171451736478
s((F-2.4
F2.4
tp645
(F600.0
F1000.0
tp646
tp647
F0.06757488452733067
s((F-2.4
F2.4
tp648
(F20.0
F30.0
tp649
tp650
F0.0
s((F-2.4
F2.4
tp651
(F70.0
F100.0
tp652
tp653
F0.4480125471697058
s((F-2.4
F2.4
tp654
(F140.0
F200.0
tp655
tp656
F0.41541828618157567
s((F-2.4
F2.4
tp657
(F100.0
F140.0
tp658
tp659
F0.47649485593523394
s((F-2.4
F2.4
tp660
(F200.0
F300.0
tp661
tp662
F0.32846980604275916
s((F-2.4
F2.4
tp663
(F30.0
F50.0
tp664
tp665
F0.45276980993389465
s((F-2.4
F2.4
tp666
(F50.0
F70.0
tp667
tp668
F0.44775409170433006
sssS'central'
p669
(dp670
g3
(dp671
((F-2.4
F2.4
tp672
(F20.0
F1000.0
tp673
tp674
F0.02199988094051173
ssg37
(dp675
((F-2.4
F2.4
tp676
(F20.0
F1000.0
tp677
tp678
F0.44699565875023606
sssS'up'
p679
(dp680
g3
(dp681
((F-2.4
F2.4
tp682
(F300.0
F600.0
tp683
tp684
F0.024353545909683912
s((F-2.4
F2.4
tp685
(F600.0
F1000.0
tp686
tp687
F0.024353545909683912
s((F-2.4
F2.4
tp688
(F20.0
F30.0
tp689
tp690
F0.0
s((F-2.4
F2.4
tp691
(F70.0
F100.0
tp692
tp693
F0.019454676373315185
s((F-2.4
F2.4
tp694
(F140.0
F200.0
tp695
tp696
F0.011300186576743306
s((F-2.4
F2.4
tp697
(F100.0
F140.0
tp698
tp699
F0.021068343828780107
s((F-2.4
F2.4
tp700
(F200.0
F300.0
tp701
tp702
F0.029476785055737146
s((F-2.4
F2.4
tp703
(F30.0
F50.0
tp704
tp705
F0.028830577489447572
s((F-2.4
F2.4
tp706
(F50.0
F70.0
tp707
tp708
F0.02193010265760388
ssg37
(dp709
((F-2.4
F2.4
tp710
(F300.0
F600.0
tp711
tp712
F0.3158171451736478
s((F-2.4
F2.4
tp713
(F600.0
F1000.0
tp714
tp715
F0.06757488452733067
s((F-2.4
F2.4
tp716
(F20.0
F30.0
tp717
tp718
F0.0
s((F-2.4
F2.4
tp719
(F70.0
F100.0
tp720
tp721
F0.4480125471697058
s((F-2.4
F2.4
tp722
(F140.0
F200.0
tp723
tp724
F0.41541828618157567
s((F-2.4
F2.4
tp725
(F100.0
F140.0
tp726
tp727
F0.47649485593523394
s((F-2.4
F2.4
tp728
(F200.0
F300.0
tp729
tp730
F0.32846980604275916
s((F-2.4
F2.4
tp731
(F30.0
F50.0
tp732
tp733
F0.45276980993389465
s((F-2.4
F2.4
tp734
(F50.0
F70.0
tp735
tp736
F0.44775409170433006
ssssS'comb'
p737
(dp738
S'down'
p739
(dp740
g3
(dp741
((F-2.4
F2.4
tp742
(F300.0
F600.0
tp743
tp744
F0.024353545909683912
s((F-2.4
F2.4
tp745
(F600.0
F1000.0
tp746
tp747
F0.024353545909683912
s((F-2.4
F2.4
tp748
(F20.0
F30.0
tp749
tp750
F0.0
s((F-2.4
F2.4
tp751
(F70.0
F100.0
tp752
tp753
F0.019454676373315185
s((F-2.4
F2.4
tp754
(F140.0
F200.0
tp755
tp756
F0.011300186576743306
s((F-2.4
F2.4
tp757
(F100.0
F140.0
tp758
tp759
F0.021068343828780107
s((F-2.4
F2.4
tp760
(F200.0
F300.0
tp761
tp762
F0.029476785055737146
s((F-2.4
F2.4
tp763
(F30.0
F50.0
tp764
tp765
F0.028830577489447572
s((F-2.4
F2.4
tp766
(F50.0
F70.0
tp767
tp768
F0.02193010265760388
ssg37
(dp769
((F-2.4
F2.4
tp770
(F300.0
F600.0
tp771
tp772
F0.3158171451736478
s((F-2.4
F2.4
tp773
(F600.0
F1000.0
tp774
tp775
F0.06757488452733067
s((F-2.4
F2.4
tp776
(F20.0
F30.0
tp777
tp778
F0.0
s((F-2.4
F2.4
tp779
(F70.0
F100.0
tp780
tp781
F0.4480125471697058
s((F-2.4
F2.4
tp782
(F140.0
F200.0
tp783
tp784
F0.41541828618157567
s((F-2.4
F2.4
tp785
(F100.0
F140.0
tp786
tp787
F0.47649485593523394
s((F-2.4
F2.4
tp788
(F200.0
F300.0
tp789
tp790
F0.32846980604275916
s((F-2.4
F2.4
tp791
(F30.0
F50.0
tp792
tp793
F0.45276980993389465
s((F-2.4
F2.4
tp794
(F50.0
F70.0
tp795
tp796
F0.44775409170433006
sssS'central'
p797
(dp798
g3
(dp799
((F-2.4
F2.4
tp800
(F20.0
F1000.0
tp801
tp802
F0.02199988094051173
ssg37
(dp803
((F-2.4
F2.4
tp804
(F20.0
F1000.0
tp805
tp806
F0.44699565875023606
sssS'up'
p807
(dp808
g3
(dp809
((F-2.4
F2.4
tp810
(F300.0
F600.0
tp811
tp812
F0.024353545909683912
s((F-2.4
F2.4
tp813
(F600.0
F1000.0
tp814
tp815
F0.024353545909683912
s((F-2.4
F2.4
tp816
(F20.0
F30.0
tp817
tp818
F0.0
s((F-2.4
F2.4
tp819
(F70.0
F100.0
tp820
tp821
F0.019454676373315185
s((F-2.4
F2.4
tp822
(F140.0
F200.0
tp823
tp824
F0.011300186576743306
s((F-2.4
F2.4
tp825
(F100.0
F140.0
tp826
tp827
F0.021068343828780107
s((F-2.4
F2.4
tp828
(F200.0
F300.0
tp829
tp830
F0.029476785055737146
s((F-2.4
F2.4
tp831
(F30.0
F50.0
tp832
tp833
F0.028830577489447572
s((F-2.4
F2.4
tp834
(F50.0
F70.0
tp835
tp836
F0.02193010265760388
ssg37
(dp837
((F-2.4
F2.4
tp838
(F300.0
F600.0
tp839
tp840
F0.3158171451736478
s((F-2.4
F2.4
tp841
(F600.0
F1000.0
tp842
tp843
F0.06757488452733067
s((F-2.4
F2.4
tp844
(F20.0
F30.0
tp845
tp846
F0.0
s((F-2.4
F2.4
tp847
(F70.0
F100.0
tp848
tp849
F0.4480125471697058
s((F-2.4
F2.4
tp850
(F140.0
F200.0
tp851
tp852
F0.41541828618157567
s((F-2.4
F2.4
tp853
(F100.0
F140.0
tp854
tp855
F0.47649485593523394
s((F-2.4
F2.4
tp856
(F200.0
F300.0
tp857
tp858
F0.32846980604275916
s((F-2.4
F2.4
tp859
(F30.0
F50.0
tp860
tp861
F0.45276980993389465
s((F-2.4
F2.4
tp862
(F50.0
F70.0
tp863
tp864
F0.44775409170433006
ssssS'incl'
p865
(dp866
S'central'
p867
(dp868
g266
(dp869
((F0.0
F2.4
tp870
(F20.0
F1000.0
tp871
tp872
F0.0010553352854105456
sssS'down_correlated'
p873
(dp874
g266
(dp875
((F0.0
F2.4
tp876
(F20.0
F1000.0
tp877
tp878
F0.0010553352854105456
sssS'down_uncorrelated'
p879
(dp880
g266
(dp881
((F0.0
F2.4
tp882
(F20.0
F1000.0
tp883
tp884
F0.0010553352854105456
sssS'up'
p885
(dp886
g266
(dp887
((F0.0
F2.4
tp888
(F20.0
F1000.0
tp889
tp890
F0.0010553352854105456
sssS'down'
p891
(dp892
g266
(dp893
((F0.0
F2.4
tp894
(F20.0
F1000.0
tp895
tp896
F0.0010553352854105456
sssS'up_uncorrelated'
p897
(dp898
g266
(dp899
((F0.0
F2.4
tp900
(F20.0
F1000.0
tp901
tp902
F0.0010553352854105456
sssS'up_correlated'
p903
(dp904
g266
(dp905
((F0.0
F2.4
tp906
(F20.0
F1000.0
tp907
tp908
F0.0010553352854105456
ssssss.