(dp0
S'1'
p1
(dp2
S'mujets'
p3
(dp4
S'down'
p5
(dp6
g1
(dp7
((F-2.4
F2.4
tp8
(F300.0
F600.0
tp9
tp10
S'(0.718014*((1.+(0.0685826*x))/(1.+(0.0475779*x))))-0.070689648389816284'
p11
s((F-2.4
F2.4
tp12
(F600.0
F1000.0
tp13
tp14
S'(0.718014*((1.+(0.0685826*x))/(1.+(0.0475779*x))))-0.10414865612983704'
p15
s((F-2.4
F2.4
tp16
(F20.0
F30.0
tp17
tp18
S'(0.718014*((1.+(0.0685826*x))/(1.+(0.0475779*x))))-0.12166473269462585'
p19
s((F-2.4
F2.4
tp20
(F70.0
F100.0
tp21
tp22
S'(0.718014*((1.+(0.0685826*x))/(1.+(0.0475779*x))))-0.043902803212404251'
p23
s((F-2.4
F2.4
tp24
(F140.0
F200.0
tp25
tp26
S'(0.718014*((1.+(0.0685826*x))/(1.+(0.0475779*x))))-0.049642853438854218'
p27
s((F-2.4
F2.4
tp28
(F100.0
F140.0
tp29
tp30
S'(0.718014*((1.+(0.0685826*x))/(1.+(0.0475779*x))))-0.042596768587827682'
p31
s((F-2.4
F2.4
tp32
(F200.0
F300.0
tp33
tp34
S'(0.718014*((1.+(0.0685826*x))/(1.+(0.0475779*x))))-0.06421864777803421'
p35
s((F-2.4
F2.4
tp36
(F30.0
F50.0
tp37
tp38
S'(0.718014*((1.+(0.0685826*x))/(1.+(0.0475779*x))))-0.055085029453039169'
p39
s((F-2.4
F2.4
tp40
(F50.0
F70.0
tp41
tp42
S'(0.718014*((1.+(0.0685826*x))/(1.+(0.0475779*x))))-0.048597507178783417'
p43
ssS'0'
p44
(dp45
((F-2.4
F2.4
tp46
(F300.0
F600.0
tp47
tp48
S'(0.718014*((1.+(0.0685826*x))/(1.+(0.0475779*x))))-0.023563217371702194'
p49
s((F-2.4
F2.4
tp50
(F600.0
F1000.0
tp51
tp52
S'(0.718014*((1.+(0.0685826*x))/(1.+(0.0475779*x))))-0.034716218709945679'
p53
s((F-2.4
F2.4
tp54
(F20.0
F30.0
tp55
tp56
S'(0.718014*((1.+(0.0685826*x))/(1.+(0.0475779*x))))-0.040554910898208618'
p57
s((F-2.4
F2.4
tp58
(F70.0
F100.0
tp59
tp60
S'(0.718014*((1.+(0.0685826*x))/(1.+(0.0475779*x))))-0.014634267427027225'
p61
s((F-2.4
F2.4
tp62
(F140.0
F200.0
tp63
tp64
S'(0.718014*((1.+(0.0685826*x))/(1.+(0.0475779*x))))-0.016547618433833122'
p65
s((F-2.4
F2.4
tp66
(F100.0
F140.0
tp67
tp68
S'(0.718014*((1.+(0.0685826*x))/(1.+(0.0475779*x))))-0.014198922552168369'
p69
s((F-2.4
F2.4
tp70
(F200.0
F300.0
tp71
tp72
S'(0.718014*((1.+(0.0685826*x))/(1.+(0.0475779*x))))-0.02140621654689312'
p73
s((F-2.4
F2.4
tp74
(F30.0
F50.0
tp75
tp76
S'(0.718014*((1.+(0.0685826*x))/(1.+(0.0475779*x))))-0.01836167648434639'
p77
s((F-2.4
F2.4
tp78
(F50.0
F70.0
tp79
tp80
S'(0.718014*((1.+(0.0685826*x))/(1.+(0.0475779*x))))-0.016199169680476189'
p81
sssS'central'
p82
(dp83
g1
(dp84
((F-2.4
F2.4
tp85
(F20.0
F1000.0
tp86
tp87
S'0.718014*((1.+(0.0685826*x))/(1.+(0.0475779*x)))'
p88
ssg44
(dp89
((F-2.4
F2.4
tp90
(F20.0
F1000.0
tp91
tp92
S'0.718014*((1.+(0.0685826*x))/(1.+(0.0475779*x)))'
p93
sssS'up'
p94
(dp95
g1
(dp96
((F-2.4
F2.4
tp97
(F300.0
F600.0
tp98
tp99
S'(0.718014*((1.+(0.0685826*x))/(1.+(0.0475779*x))))+0.070689648389816284'
p100
s((F-2.4
F2.4
tp101
(F600.0
F1000.0
tp102
tp103
S'(0.718014*((1.+(0.0685826*x))/(1.+(0.0475779*x))))+0.10414865612983704'
p104
s((F-2.4
F2.4
tp105
(F20.0
F30.0
tp106
tp107
S'(0.718014*((1.+(0.0685826*x))/(1.+(0.0475779*x))))+0.12166473269462585'
p108
s((F-2.4
F2.4
tp109
(F70.0
F100.0
tp110
tp111
S'(0.718014*((1.+(0.0685826*x))/(1.+(0.0475779*x))))+0.043902803212404251'
p112
s((F-2.4
F2.4
tp113
(F140.0
F200.0
tp114
tp115
S'(0.718014*((1.+(0.0685826*x))/(1.+(0.0475779*x))))+0.049642853438854218'
p116
s((F-2.4
F2.4
tp117
(F100.0
F140.0
tp118
tp119
S'(0.718014*((1.+(0.0685826*x))/(1.+(0.0475779*x))))+0.042596768587827682'
p120
s((F-2.4
F2.4
tp121
(F200.0
F300.0
tp122
tp123
S'(0.718014*((1.+(0.0685826*x))/(1.+(0.0475779*x))))+0.06421864777803421'
p124
s((F-2.4
F2.4
tp125
(F30.0
F50.0
tp126
tp127
S'(0.718014*((1.+(0.0685826*x))/(1.+(0.0475779*x))))+0.055085029453039169'
p128
s((F-2.4
F2.4
tp129
(F50.0
F70.0
tp130
tp131
S'(0.718014*((1.+(0.0685826*x))/(1.+(0.0475779*x))))+0.048597507178783417'
p132
ssg44
(dp133
((F-2.4
F2.4
tp134
(F300.0
F600.0
tp135
tp136
S'(0.718014*((1.+(0.0685826*x))/(1.+(0.0475779*x))))+0.023563217371702194'
p137
s((F-2.4
F2.4
tp138
(F600.0
F1000.0
tp139
tp140
S'(0.718014*((1.+(0.0685826*x))/(1.+(0.0475779*x))))+0.034716218709945679'
p141
s((F-2.4
F2.4
tp142
(F20.0
F30.0
tp143
tp144
S'(0.718014*((1.+(0.0685826*x))/(1.+(0.0475779*x))))+0.040554910898208618'
p145
s((F-2.4
F2.4
tp146
(F70.0
F100.0
tp147
tp148
S'(0.718014*((1.+(0.0685826*x))/(1.+(0.0475779*x))))+0.014634267427027225'
p149
s((F-2.4
F2.4
tp150
(F140.0
F200.0
tp151
tp152
S'(0.718014*((1.+(0.0685826*x))/(1.+(0.0475779*x))))+0.016547618433833122'
p153
s((F-2.4
F2.4
tp154
(F100.0
F140.0
tp155
tp156
S'(0.718014*((1.+(0.0685826*x))/(1.+(0.0475779*x))))+0.014198922552168369'
p157
s((F-2.4
F2.4
tp158
(F200.0
F300.0
tp159
tp160
S'(0.718014*((1.+(0.0685826*x))/(1.+(0.0475779*x))))+0.02140621654689312'
p161
s((F-2.4
F2.4
tp162
(F30.0
F50.0
tp163
tp164
S'(0.718014*((1.+(0.0685826*x))/(1.+(0.0475779*x))))+0.01836167648434639'
p165
s((F-2.4
F2.4
tp166
(F50.0
F70.0
tp167
tp168
S'(0.718014*((1.+(0.0685826*x))/(1.+(0.0475779*x))))+0.016199169680476189'
p169
ssssS'comb'
p170
(dp171
S'down'
p172
(dp173
g1
(dp174
((F-2.4
F2.4
tp175
(F300.0
F600.0
tp176
tp177
S'(0.561694*((1.+(0.31439*x))/(1.+(0.17756*x))))-0.064243391156196594'
p178
s((F-2.4
F2.4
tp179
(F600.0
F1000.0
tp180
tp181
S'(0.561694*((1.+(0.31439*x))/(1.+(0.17756*x))))-0.097131341695785522'
p182
s((F-2.4
F2.4
tp183
(F20.0
F30.0
tp184
tp185
S'(0.561694*((1.+(0.31439*x))/(1.+(0.17756*x))))-0.12064050137996674'
p186
s((F-2.4
F2.4
tp187
(F70.0
F100.0
tp188
tp189
S'(0.561694*((1.+(0.31439*x))/(1.+(0.17756*x))))-0.036822021007537842'
p190
s((F-2.4
F2.4
tp191
(F140.0
F200.0
tp192
tp193
S'(0.561694*((1.+(0.31439*x))/(1.+(0.17756*x))))-0.0362386554479599'
p194
s((F-2.4
F2.4
tp195
(F100.0
F140.0
tp196
tp197
S'(0.561694*((1.+(0.31439*x))/(1.+(0.17756*x))))-0.034397732466459274'
p198
s((F-2.4
F2.4
tp199
(F200.0
F300.0
tp200
tp201
S'(0.561694*((1.+(0.31439*x))/(1.+(0.17756*x))))-0.044985830783843994'
p202
s((F-2.4
F2.4
tp203
(F30.0
F50.0
tp204
tp205
S'(0.561694*((1.+(0.31439*x))/(1.+(0.17756*x))))-0.042138919234275818'
p206
s((F-2.4
F2.4
tp207
(F50.0
F70.0
tp208
tp209
S'(0.561694*((1.+(0.31439*x))/(1.+(0.17756*x))))-0.03711806982755661'
p210
ssg44
(dp211
((F-2.4
F2.4
tp212
(F300.0
F600.0
tp213
tp214
S'(0.561694*((1.+(0.31439*x))/(1.+(0.17756*x))))-0.021414462476968765'
p215
s((F-2.4
F2.4
tp216
(F600.0
F1000.0
tp217
tp218
S'(0.561694*((1.+(0.31439*x))/(1.+(0.17756*x))))-0.032377112656831741'
p219
s((F-2.4
F2.4
tp220
(F20.0
F30.0
tp221
tp222
S'(0.561694*((1.+(0.31439*x))/(1.+(0.17756*x))))-0.040213499218225479'
p223
s((F-2.4
F2.4
tp224
(F70.0
F100.0
tp225
tp226
S'(0.561694*((1.+(0.31439*x))/(1.+(0.17756*x))))-0.012274007312953472'
p227
s((F-2.4
F2.4
tp228
(F140.0
F200.0
tp229
tp230
S'(0.561694*((1.+(0.31439*x))/(1.+(0.17756*x))))-0.012079551815986633'
p231
s((F-2.4
F2.4
tp232
(F100.0
F140.0
tp233
tp234
S'(0.561694*((1.+(0.31439*x))/(1.+(0.17756*x))))-0.011465910822153091'
p235
s((F-2.4
F2.4
tp236
(F200.0
F300.0
tp237
tp238
S'(0.561694*((1.+(0.31439*x))/(1.+(0.17756*x))))-0.014995276927947998'
p239
s((F-2.4
F2.4
tp240
(F30.0
F50.0
tp241
tp242
S'(0.561694*((1.+(0.31439*x))/(1.+(0.17756*x))))-0.014046305790543556'
p243
s((F-2.4
F2.4
tp244
(F50.0
F70.0
tp245
tp246
S'(0.561694*((1.+(0.31439*x))/(1.+(0.17756*x))))-0.012372690252959728'
p247
sssS'central'
p248
(dp249
g1
(dp250
((F-2.4
F2.4
tp251
(F20.0
F1000.0
tp252
tp253
S'0.561694*((1.+(0.31439*x))/(1.+(0.17756*x)))'
p254
ssg44
(dp255
((F-2.4
F2.4
tp256
(F20.0
F1000.0
tp257
tp258
S'0.561694*((1.+(0.31439*x))/(1.+(0.17756*x)))'
p259
sssS'up'
p260
(dp261
g1
(dp262
((F-2.4
F2.4
tp263
(F300.0
F600.0
tp264
tp265
S'(0.561694*((1.+(0.31439*x))/(1.+(0.17756*x))))+0.064243391156196594'
p266
s((F-2.4
F2.4
tp267
(F600.0
F1000.0
tp268
tp269
S'(0.561694*((1.+(0.31439*x))/(1.+(0.17756*x))))+0.097131341695785522'
p270
s((F-2.4
F2.4
tp271
(F20.0
F30.0
tp272
tp273
S'(0.561694*((1.+(0.31439*x))/(1.+(0.17756*x))))+0.12064050137996674'
p274
s((F-2.4
F2.4
tp275
(F70.0
F100.0
tp276
tp277
S'(0.561694*((1.+(0.31439*x))/(1.+(0.17756*x))))+0.036822021007537842'
p278
s((F-2.4
F2.4
tp279
(F140.0
F200.0
tp280
tp281
S'(0.561694*((1.+(0.31439*x))/(1.+(0.17756*x))))+0.0362386554479599'
p282
s((F-2.4
F2.4
tp283
(F100.0
F140.0
tp284
tp285
S'(0.561694*((1.+(0.31439*x))/(1.+(0.17756*x))))+0.034397732466459274'
p286
s((F-2.4
F2.4
tp287
(F200.0
F300.0
tp288
tp289
S'(0.561694*((1.+(0.31439*x))/(1.+(0.17756*x))))+0.044985830783843994'
p290
s((F-2.4
F2.4
tp291
(F30.0
F50.0
tp292
tp293
S'(0.561694*((1.+(0.31439*x))/(1.+(0.17756*x))))+0.042138919234275818'
p294
s((F-2.4
F2.4
tp295
(F50.0
F70.0
tp296
tp297
S'(0.561694*((1.+(0.31439*x))/(1.+(0.17756*x))))+0.03711806982755661'
p298
ssg44
(dp299
((F-2.4
F2.4
tp300
(F300.0
F600.0
tp301
tp302
S'(0.561694*((1.+(0.31439*x))/(1.+(0.17756*x))))+0.021414462476968765'
p303
s((F-2.4
F2.4
tp304
(F600.0
F1000.0
tp305
tp306
S'(0.561694*((1.+(0.31439*x))/(1.+(0.17756*x))))+0.032377112656831741'
p307
s((F-2.4
F2.4
tp308
(F20.0
F30.0
tp309
tp310
S'(0.561694*((1.+(0.31439*x))/(1.+(0.17756*x))))+0.040213499218225479'
p311
s((F-2.4
F2.4
tp312
(F70.0
F100.0
tp313
tp314
S'(0.561694*((1.+(0.31439*x))/(1.+(0.17756*x))))+0.012274007312953472'
p315
s((F-2.4
F2.4
tp316
(F140.0
F200.0
tp317
tp318
S'(0.561694*((1.+(0.31439*x))/(1.+(0.17756*x))))+0.012079551815986633'
p319
s((F-2.4
F2.4
tp320
(F100.0
F140.0
tp321
tp322
S'(0.561694*((1.+(0.31439*x))/(1.+(0.17756*x))))+0.011465910822153091'
p323
s((F-2.4
F2.4
tp324
(F200.0
F300.0
tp325
tp326
S'(0.561694*((1.+(0.31439*x))/(1.+(0.17756*x))))+0.014995276927947998'
p327
s((F-2.4
F2.4
tp328
(F30.0
F50.0
tp329
tp330
S'(0.561694*((1.+(0.31439*x))/(1.+(0.17756*x))))+0.014046305790543556'
p331
s((F-2.4
F2.4
tp332
(F50.0
F70.0
tp333
tp334
S'(0.561694*((1.+(0.31439*x))/(1.+(0.17756*x))))+0.012372690252959728'
p335
ssssS'incl'
p336
(dp337
S'central'
p338
(dp339
S'2'
p340
(dp341
((F0.0
F2.4
tp342
(F20.0
F1000.0
tp343
tp344
S'1.0589+0.000382569*x+-2.4252e-07*x*x+2.20966e-10*x*x*x'
p345
sssS'down_correlated'
p346
(dp347
g340
(dp348
((F0.0
F2.4
tp349
(F20.0
F1000.0
tp350
tp351
S'(1.0589+0.000382569*x+-2.4252e-07*x*x+2.20966e-10*x*x*x)*(1-(0.0671806+4.6732e-05*x+-6.01135e-08*x*x))'
p352
sssS'down_uncorrelated'
p353
(dp354
g340
(dp355
((F0.0
F2.4
tp356
(F20.0
F1000.0
tp357
tp358
S'(1.0589+0.000382569*x+-2.4252e-07*x*x+2.20966e-10*x*x*x)*(1-(0.0765736))'
p359
sssS'up'
p360
(dp361
g340
(dp362
((F0.0
F2.4
tp363
(F20.0
F1000.0
tp364
tp365
S'(1.0589+0.000382569*x+-2.4252e-07*x*x+2.20966e-10*x*x*x)*(1+(0.100485+3.95509e-05*x+-4.90326e-08*x*x))'
p366
sssS'down'
p367
(dp368
g340
(dp369
((F0.0
F2.4
tp370
(F20.0
F1000.0
tp371
tp372
S'(1.0589+0.000382569*x+-2.4252e-07*x*x+2.20966e-10*x*x*x)*(1-(0.100485+3.95509e-05*x+-4.90326e-08*x*x))'
p373
sssS'up_uncorrelated'
p374
(dp375
g340
(dp376
((F0.0
F2.4
tp377
(F20.0
F1000.0
tp378
tp379
S'(1.0589+0.000382569*x+-2.4252e-07*x*x+2.20966e-10*x*x*x)*(1+(0.0765736))'
p380
sssS'up_correlated'
p381
(dp382
g340
(dp383
((F0.0
F2.4
tp384
(F20.0
F1000.0
tp385
tp386
S'(1.0589+0.000382569*x+-2.4252e-07*x*x+2.20966e-10*x*x*x)*(1+(0.0671806+4.6732e-05*x+-6.01135e-08*x*x))'
p387
sssssg44
(dp388
S'mujets'
p389
(dp390
S'down'
p391
(dp392
g1
(dp393
((F-2.4
F2.4
tp394
(F300.0
F600.0
tp395
tp396
S'(0.884016*((1.+(0.0331508*x))/(1.+(0.0285096*x))))-0.045958288013935089'
p397
s((F-2.4
F2.4
tp398
(F600.0
F1000.0
tp399
tp400
S'(0.884016*((1.+(0.0331508*x))/(1.+(0.0285096*x))))-0.056262202560901642'
p401
s((F-2.4
F2.4
tp402
(F20.0
F30.0
tp403
tp404
S'(0.884016*((1.+(0.0331508*x))/(1.+(0.0285096*x))))-0.063606932759284973'
p405
s((F-2.4
F2.4
tp406
(F70.0
F100.0
tp407
tp408
S'(0.884016*((1.+(0.0331508*x))/(1.+(0.0285096*x))))-0.034643515944480896'
p409
s((F-2.4
F2.4
tp410
(F140.0
F200.0
tp411
tp412
S'(0.884016*((1.+(0.0331508*x))/(1.+(0.0285096*x))))-0.028828304260969162'
p413
s((F-2.4
F2.4
tp414
(F100.0
F140.0
tp415
tp416
S'(0.884016*((1.+(0.0331508*x))/(1.+(0.0285096*x))))-0.033017721027135849'
p417
s((F-2.4
F2.4
tp418
(F200.0
F300.0
tp419
tp420
S'(0.884016*((1.+(0.0331508*x))/(1.+(0.0285096*x))))-0.045852780342102051'
p421
s((F-2.4
F2.4
tp422
(F30.0
F50.0
tp423
tp424
S'(0.884016*((1.+(0.0331508*x))/(1.+(0.0285096*x))))-0.034989029169082642'
p425
s((F-2.4
F2.4
tp426
(F50.0
F70.0
tp427
tp428
S'(0.884016*((1.+(0.0331508*x))/(1.+(0.0285096*x))))-0.033047597855329514'
p429
ssg44
(dp430
((F-2.4
F2.4
tp431
(F300.0
F600.0
tp432
tp433
S'(0.884016*((1.+(0.0331508*x))/(1.+(0.0285096*x))))-0.018383314833045006'
p434
s((F-2.4
F2.4
tp435
(F600.0
F1000.0
tp436
tp437
S'(0.884016*((1.+(0.0331508*x))/(1.+(0.0285096*x))))-0.022504881024360657'
p438
s((F-2.4
F2.4
tp439
(F20.0
F30.0
tp440
tp441
S'(0.884016*((1.+(0.0331508*x))/(1.+(0.0285096*x))))-0.025442773476243019'
p442
s((F-2.4
F2.4
tp443
(F70.0
F100.0
tp444
tp445
S'(0.884016*((1.+(0.0331508*x))/(1.+(0.0285096*x))))-0.013857406564056873'
p446
s((F-2.4
F2.4
tp447
(F140.0
F200.0
tp448
tp449
S'(0.884016*((1.+(0.0331508*x))/(1.+(0.0285096*x))))-0.011531321331858635'
p450
s((F-2.4
F2.4
tp451
(F100.0
F140.0
tp452
tp453
S'(0.884016*((1.+(0.0331508*x))/(1.+(0.0285096*x))))-0.013207088224589825'
p454
s((F-2.4
F2.4
tp455
(F200.0
F300.0
tp456
tp457
S'(0.884016*((1.+(0.0331508*x))/(1.+(0.0285096*x))))-0.01834111288189888'
p458
s((F-2.4
F2.4
tp459
(F30.0
F50.0
tp460
tp461
S'(0.884016*((1.+(0.0331508*x))/(1.+(0.0285096*x))))-0.013995612040162086'
p462
s((F-2.4
F2.4
tp463
(F50.0
F70.0
tp464
tp465
S'(0.884016*((1.+(0.0331508*x))/(1.+(0.0285096*x))))-0.01321903895586729'
p466
sssS'central'
p467
(dp468
g1
(dp469
((F-2.4
F2.4
tp470
(F20.0
F1000.0
tp471
tp472
S'0.884016*((1.+(0.0331508*x))/(1.+(0.0285096*x)))'
p473
ssg44
(dp474
((F-2.4
F2.4
tp475
(F20.0
F1000.0
tp476
tp477
S'0.884016*((1.+(0.0331508*x))/(1.+(0.0285096*x)))'
p478
sssS'up'
p479
(dp480
g1
(dp481
((F-2.4
F2.4
tp482
(F300.0
F600.0
tp483
tp484
S'(0.884016*((1.+(0.0331508*x))/(1.+(0.0285096*x))))+0.045958288013935089'
p485
s((F-2.4
F2.4
tp486
(F600.0
F1000.0
tp487
tp488
S'(0.884016*((1.+(0.0331508*x))/(1.+(0.0285096*x))))+0.056262202560901642'
p489
s((F-2.4
F2.4
tp490
(F20.0
F30.0
tp491
tp492
S'(0.884016*((1.+(0.0331508*x))/(1.+(0.0285096*x))))+0.063606932759284973'
p493
s((F-2.4
F2.4
tp494
(F70.0
F100.0
tp495
tp496
S'(0.884016*((1.+(0.0331508*x))/(1.+(0.0285096*x))))+0.034643515944480896'
p497
s((F-2.4
F2.4
tp498
(F140.0
F200.0
tp499
tp500
S'(0.884016*((1.+(0.0331508*x))/(1.+(0.0285096*x))))+0.028828304260969162'
p501
s((F-2.4
F2.4
tp502
(F100.0
F140.0
tp503
tp504
S'(0.884016*((1.+(0.0331508*x))/(1.+(0.0285096*x))))+0.033017721027135849'
p505
s((F-2.4
F2.4
tp506
(F200.0
F300.0
tp507
tp508
S'(0.884016*((1.+(0.0331508*x))/(1.+(0.0285096*x))))+0.045852780342102051'
p509
s((F-2.4
F2.4
tp510
(F30.0
F50.0
tp511
tp512
S'(0.884016*((1.+(0.0331508*x))/(1.+(0.0285096*x))))+0.034989029169082642'
p513
s((F-2.4
F2.4
tp514
(F50.0
F70.0
tp515
tp516
S'(0.884016*((1.+(0.0331508*x))/(1.+(0.0285096*x))))+0.033047597855329514'
p517
ssg44
(dp518
((F-2.4
F2.4
tp519
(F300.0
F600.0
tp520
tp521
S'(0.884016*((1.+(0.0331508*x))/(1.+(0.0285096*x))))+0.018383314833045006'
p522
s((F-2.4
F2.4
tp523
(F600.0
F1000.0
tp524
tp525
S'(0.884016*((1.+(0.0331508*x))/(1.+(0.0285096*x))))+0.022504881024360657'
p526
s((F-2.4
F2.4
tp527
(F20.0
F30.0
tp528
tp529
S'(0.884016*((1.+(0.0331508*x))/(1.+(0.0285096*x))))+0.025442773476243019'
p530
s((F-2.4
F2.4
tp531
(F70.0
F100.0
tp532
tp533
S'(0.884016*((1.+(0.0331508*x))/(1.+(0.0285096*x))))+0.013857406564056873'
p534
s((F-2.4
F2.4
tp535
(F140.0
F200.0
tp536
tp537
S'(0.884016*((1.+(0.0331508*x))/(1.+(0.0285096*x))))+0.011531321331858635'
p538
s((F-2.4
F2.4
tp539
(F100.0
F140.0
tp540
tp541
S'(0.884016*((1.+(0.0331508*x))/(1.+(0.0285096*x))))+0.013207088224589825'
p542
s((F-2.4
F2.4
tp543
(F200.0
F300.0
tp544
tp545
S'(0.884016*((1.+(0.0331508*x))/(1.+(0.0285096*x))))+0.01834111288189888'
p546
s((F-2.4
F2.4
tp547
(F30.0
F50.0
tp548
tp549
S'(0.884016*((1.+(0.0331508*x))/(1.+(0.0285096*x))))+0.013995612040162086'
p550
s((F-2.4
F2.4
tp551
(F50.0
F70.0
tp552
tp553
S'(0.884016*((1.+(0.0331508*x))/(1.+(0.0285096*x))))+0.01321903895586729'
p554
ssssS'comb'
p555
(dp556
S'down'
p557
(dp558
g1
(dp559
((F-2.4
F2.4
tp560
(F300.0
F600.0
tp561
tp562
S'(0.887973*((1.+(0.0523821*x))/(1.+(0.0460876*x))))-0.04273652657866478'
p563
s((F-2.4
F2.4
tp564
(F600.0
F1000.0
tp565
tp566
S'(0.887973*((1.+(0.0523821*x))/(1.+(0.0460876*x))))-0.054665762931108475'
p567
s((F-2.4
F2.4
tp568
(F20.0
F30.0
tp569
tp570
S'(0.887973*((1.+(0.0523821*x))/(1.+(0.0460876*x))))-0.063454590737819672'
p571
s((F-2.4
F2.4
tp572
(F70.0
F100.0
tp573
tp574
S'(0.887973*((1.+(0.0523821*x))/(1.+(0.0460876*x))))-0.028121808543801308'
p575
s((F-2.4
F2.4
tp576
(F140.0
F200.0
tp577
tp578
S'(0.887973*((1.+(0.0523821*x))/(1.+(0.0460876*x))))-0.027206243947148323'
p579
s((F-2.4
F2.4
tp580
(F100.0
F140.0
tp581
tp582
S'(0.887973*((1.+(0.0523821*x))/(1.+(0.0460876*x))))-0.027028990909457207'
p583
s((F-2.4
F2.4
tp584
(F200.0
F300.0
tp585
tp586
S'(0.887973*((1.+(0.0523821*x))/(1.+(0.0460876*x))))-0.033642303198575974'
p587
s((F-2.4
F2.4
tp588
(F30.0
F50.0
tp589
tp590
S'(0.887973*((1.+(0.0523821*x))/(1.+(0.0460876*x))))-0.031410016119480133'
p591
s((F-2.4
F2.4
tp592
(F50.0
F70.0
tp593
tp594
S'(0.887973*((1.+(0.0523821*x))/(1.+(0.0460876*x))))-0.02891194075345993'
p595
ssg44
(dp596
((F-2.4
F2.4
tp597
(F300.0
F600.0
tp598
tp599
S'(0.887973*((1.+(0.0523821*x))/(1.+(0.0460876*x))))-0.017094610258936882'
p600
s((F-2.4
F2.4
tp601
(F600.0
F1000.0
tp602
tp603
S'(0.887973*((1.+(0.0523821*x))/(1.+(0.0460876*x))))-0.02186630479991436'
p604
s((F-2.4
F2.4
tp605
(F20.0
F30.0
tp606
tp607
S'(0.887973*((1.+(0.0523821*x))/(1.+(0.0460876*x))))-0.025381835177540779'
p608
s((F-2.4
F2.4
tp609
(F70.0
F100.0
tp610
tp611
S'(0.887973*((1.+(0.0523821*x))/(1.+(0.0460876*x))))-0.011248723603785038'
p612
s((F-2.4
F2.4
tp613
(F140.0
F200.0
tp614
tp615
S'(0.887973*((1.+(0.0523821*x))/(1.+(0.0460876*x))))-0.010882497765123844'
p616
s((F-2.4
F2.4
tp617
(F100.0
F140.0
tp618
tp619
S'(0.887973*((1.+(0.0523821*x))/(1.+(0.0460876*x))))-0.010811596177518368'
p620
s((F-2.4
F2.4
tp621
(F200.0
F300.0
tp622
tp623
S'(0.887973*((1.+(0.0523821*x))/(1.+(0.0460876*x))))-0.013456921093165874'
p624
s((F-2.4
F2.4
tp625
(F30.0
F50.0
tp626
tp627
S'(0.887973*((1.+(0.0523821*x))/(1.+(0.0460876*x))))-0.012564006261527538'
p628
s((F-2.4
F2.4
tp629
(F50.0
F70.0
tp630
tp631
S'(0.887973*((1.+(0.0523821*x))/(1.+(0.0460876*x))))-0.011564776301383972'
p632
sssS'central'
p633
(dp634
g1
(dp635
((F-2.4
F2.4
tp636
(F20.0
F1000.0
tp637
tp638
S'0.887973*((1.+(0.0523821*x))/(1.+(0.0460876*x)))'
p639
ssg44
(dp640
((F-2.4
F2.4
tp641
(F20.0
F1000.0
tp642
tp643
S'0.887973*((1.+(0.0523821*x))/(1.+(0.0460876*x)))'
p644
sssS'up'
p645
(dp646
g1
(dp647
((F-2.4
F2.4
tp648
(F300.0
F600.0
tp649
tp650
S'(0.887973*((1.+(0.0523821*x))/(1.+(0.0460876*x))))+0.04273652657866478'
p651
s((F-2.4
F2.4
tp652
(F600.0
F1000.0
tp653
tp654
S'(0.887973*((1.+(0.0523821*x))/(1.+(0.0460876*x))))+0.054665762931108475'
p655
s((F-2.4
F2.4
tp656
(F20.0
F30.0
tp657
tp658
S'(0.887973*((1.+(0.0523821*x))/(1.+(0.0460876*x))))+0.063454590737819672'
p659
s((F-2.4
F2.4
tp660
(F70.0
F100.0
tp661
tp662
S'(0.887973*((1.+(0.0523821*x))/(1.+(0.0460876*x))))+0.028121808543801308'
p663
s((F-2.4
F2.4
tp664
(F140.0
F200.0
tp665
tp666
S'(0.887973*((1.+(0.0523821*x))/(1.+(0.0460876*x))))+0.027206243947148323'
p667
s((F-2.4
F2.4
tp668
(F100.0
F140.0
tp669
tp670
S'(0.887973*((1.+(0.0523821*x))/(1.+(0.0460876*x))))+0.027028990909457207'
p671
s((F-2.4
F2.4
tp672
(F200.0
F300.0
tp673
tp674
S'(0.887973*((1.+(0.0523821*x))/(1.+(0.0460876*x))))+0.033642303198575974'
p675
s((F-2.4
F2.4
tp676
(F30.0
F50.0
tp677
tp678
S'(0.887973*((1.+(0.0523821*x))/(1.+(0.0460876*x))))+0.031410016119480133'
p679
s((F-2.4
F2.4
tp680
(F50.0
F70.0
tp681
tp682
S'(0.887973*((1.+(0.0523821*x))/(1.+(0.0460876*x))))+0.02891194075345993'
p683
ssg44
(dp684
((F-2.4
F2.4
tp685
(F300.0
F600.0
tp686
tp687
S'(0.887973*((1.+(0.0523821*x))/(1.+(0.0460876*x))))+0.017094610258936882'
p688
s((F-2.4
F2.4
tp689
(F600.0
F1000.0
tp690
tp691
S'(0.887973*((1.+(0.0523821*x))/(1.+(0.0460876*x))))+0.02186630479991436'
p692
s((F-2.4
F2.4
tp693
(F20.0
F30.0
tp694
tp695
S'(0.887973*((1.+(0.0523821*x))/(1.+(0.0460876*x))))+0.025381835177540779'
p696
s((F-2.4
F2.4
tp697
(F70.0
F100.0
tp698
tp699
S'(0.887973*((1.+(0.0523821*x))/(1.+(0.0460876*x))))+0.011248723603785038'
p700
s((F-2.4
F2.4
tp701
(F140.0
F200.0
tp702
tp703
S'(0.887973*((1.+(0.0523821*x))/(1.+(0.0460876*x))))+0.010882497765123844'
p704
s((F-2.4
F2.4
tp705
(F100.0
F140.0
tp706
tp707
S'(0.887973*((1.+(0.0523821*x))/(1.+(0.0460876*x))))+0.010811596177518368'
p708
s((F-2.4
F2.4
tp709
(F200.0
F300.0
tp710
tp711
S'(0.887973*((1.+(0.0523821*x))/(1.+(0.0460876*x))))+0.013456921093165874'
p712
s((F-2.4
F2.4
tp713
(F30.0
F50.0
tp714
tp715
S'(0.887973*((1.+(0.0523821*x))/(1.+(0.0460876*x))))+0.012564006261527538'
p716
s((F-2.4
F2.4
tp717
(F50.0
F70.0
tp718
tp719
S'(0.887973*((1.+(0.0523821*x))/(1.+(0.0460876*x))))+0.011564776301383972'
p720
ssssS'incl'
p721
(dp722
S'central'
p723
(dp724
g340
(dp725
((F0.0
F2.4
tp726
(F20.0
F1000.0
tp727
tp728
S'1.13904+-0.000594946*x+1.97303e-06*x*x+-1.38194e-09*x*x*x'
p729
sssS'down_correlated'
p730
(dp731
g340
(dp732
((F0.0
F2.4
tp733
(F20.0
F1000.0
tp734
tp735
S'(1.13904+-0.000594946*x+1.97303e-06*x*x+-1.38194e-09*x*x*x)*(1-(0.0908666+-8.3008e-05*x+4.06224e-08*x*x))'
p736
sssS'down_uncorrelated'
p737
(dp738
g340
(dp739
((F0.0
F2.4
tp740
(F20.0
F1000.0
tp741
tp742
S'(1.13904+-0.000594946*x+1.97303e-06*x*x+-1.38194e-09*x*x*x)*(1-(0.0378438))'
p743
sssS'up'
p744
(dp745
g340
(dp746
((F0.0
F2.4
tp747
(F20.0
F1000.0
tp748
tp749
S'(1.13904+-0.000594946*x+1.97303e-06*x*x+-1.38194e-09*x*x*x)*(1+(0.0996438+-8.33354e-05*x+4.74359e-08*x*x))'
p750
sssS'down'
p751
(dp752
g340
(dp753
((F0.0
F2.4
tp754
(F20.0
F1000.0
tp755
tp756
S'(1.13904+-0.000594946*x+1.97303e-06*x*x+-1.38194e-09*x*x*x)*(1-(0.0996438+-8.33354e-05*x+4.74359e-08*x*x))'
p757
sssS'up_uncorrelated'
p758
(dp759
g340
(dp760
((F0.0
F2.4
tp761
(F20.0
F1000.0
tp762
tp763
S'(1.13904+-0.000594946*x+1.97303e-06*x*x+-1.38194e-09*x*x*x)*(1+(0.0378438))'
p764
sssS'up_correlated'
p765
(dp766
g340
(dp767
((F0.0
F2.4
tp768
(F20.0
F1000.0
tp769
tp770
S'(1.13904+-0.000594946*x+1.97303e-06*x*x+-1.38194e-09*x*x*x)*(1+(0.0908666+-8.3008e-05*x+4.06224e-08*x*x))'
p771
sssssg340
(dp772
S'mujets'
p773
(dp774
S'down'
p775
(dp776
g1
(dp777
((F-2.4
F2.4
tp778
(F300.0
F600.0
tp779
tp780
S'(0.849497*((1.+(0.01854*x))/(1.+(0.0153613*x))))-0.11530528217554092'
p781
s((F-2.4
F2.4
tp782
(F600.0
F1000.0
tp783
tp784
S'(0.849497*((1.+(0.01854*x))/(1.+(0.0153613*x))))-0.19122670590877533'
p785
s((F-2.4
F2.4
tp786
(F20.0
F30.0
tp787
tp788
S'(0.849497*((1.+(0.01854*x))/(1.+(0.0153613*x))))-0.12066856026649475'
p789
s((F-2.4
F2.4
tp790
(F70.0
F100.0
tp791
tp792
S'(0.849497*((1.+(0.01854*x))/(1.+(0.0153613*x))))-0.059891223907470703'
p793
s((F-2.4
F2.4
tp794
(F140.0
F200.0
tp795
tp796
S'(0.849497*((1.+(0.01854*x))/(1.+(0.0153613*x))))-0.058427996933460236'
p797
s((F-2.4
F2.4
tp798
(F100.0
F140.0
tp799
tp800
S'(0.849497*((1.+(0.01854*x))/(1.+(0.0153613*x))))-0.059213291853666306'
p801
s((F-2.4
F2.4
tp802
(F200.0
F300.0
tp803
tp804
S'(0.849497*((1.+(0.01854*x))/(1.+(0.0153613*x))))-0.099112451076507568'
p805
s((F-2.4
F2.4
tp806
(F30.0
F50.0
tp807
tp808
S'(0.849497*((1.+(0.01854*x))/(1.+(0.0153613*x))))-0.079742610454559326'
p809
s((F-2.4
F2.4
tp810
(F50.0
F70.0
tp811
tp812
S'(0.849497*((1.+(0.01854*x))/(1.+(0.0153613*x))))-0.073544494807720184'
p813
ssg44
(dp814
((F-2.4
F2.4
tp815
(F300.0
F600.0
tp816
tp817
S'(0.849497*((1.+(0.01854*x))/(1.+(0.0153613*x))))-0.032944366335868835'
p818
s((F-2.4
F2.4
tp819
(F600.0
F1000.0
tp820
tp821
S'(0.849497*((1.+(0.01854*x))/(1.+(0.0153613*x))))-0.054636202752590179'
p822
s((F-2.4
F2.4
tp823
(F20.0
F30.0
tp824
tp825
S'(0.849497*((1.+(0.01854*x))/(1.+(0.0153613*x))))-0.034476730972528458'
p826
s((F-2.4
F2.4
tp827
(F70.0
F100.0
tp828
tp829
S'(0.849497*((1.+(0.01854*x))/(1.+(0.0153613*x))))-0.017111778259277344'
p830
s((F-2.4
F2.4
tp831
(F140.0
F200.0
tp832
tp833
S'(0.849497*((1.+(0.01854*x))/(1.+(0.0153613*x))))-0.016693713143467903'
p834
s((F-2.4
F2.4
tp835
(F100.0
F140.0
tp836
tp837
S'(0.849497*((1.+(0.01854*x))/(1.+(0.0153613*x))))-0.016918083652853966'
p838
s((F-2.4
F2.4
tp839
(F200.0
F300.0
tp840
tp841
S'(0.849497*((1.+(0.01854*x))/(1.+(0.0153613*x))))-0.02831784263253212'
p842
s((F-2.4
F2.4
tp843
(F30.0
F50.0
tp844
tp845
S'(0.849497*((1.+(0.01854*x))/(1.+(0.0153613*x))))-0.022783603519201279'
p846
s((F-2.4
F2.4
tp847
(F50.0
F70.0
tp848
tp849
S'(0.849497*((1.+(0.01854*x))/(1.+(0.0153613*x))))-0.021012712270021439'
p850
sssS'central'
p851
(dp852
g1
(dp853
((F-2.4
F2.4
tp854
(F20.0
F1000.0
tp855
tp856
S'0.849497*((1.+(0.01854*x))/(1.+(0.0153613*x)))'
p857
ssg44
(dp858
((F-2.4
F2.4
tp859
(F20.0
F1000.0
tp860
tp861
S'0.849497*((1.+(0.01854*x))/(1.+(0.0153613*x)))'
p862
sssS'up'
p863
(dp864
g1
(dp865
((F-2.4
F2.4
tp866
(F300.0
F600.0
tp867
tp868
S'(0.849497*((1.+(0.01854*x))/(1.+(0.0153613*x))))+0.11530528217554092'
p869
s((F-2.4
F2.4
tp870
(F600.0
F1000.0
tp871
tp872
S'(0.849497*((1.+(0.01854*x))/(1.+(0.0153613*x))))+0.19122670590877533'
p873
s((F-2.4
F2.4
tp874
(F20.0
F30.0
tp875
tp876
S'(0.849497*((1.+(0.01854*x))/(1.+(0.0153613*x))))+0.12066856026649475'
p877
s((F-2.4
F2.4
tp878
(F70.0
F100.0
tp879
tp880
S'(0.849497*((1.+(0.01854*x))/(1.+(0.0153613*x))))+0.059891223907470703'
p881
s((F-2.4
F2.4
tp882
(F140.0
F200.0
tp883
tp884
S'(0.849497*((1.+(0.01854*x))/(1.+(0.0153613*x))))+0.058427996933460236'
p885
s((F-2.4
F2.4
tp886
(F100.0
F140.0
tp887
tp888
S'(0.849497*((1.+(0.01854*x))/(1.+(0.0153613*x))))+0.059213291853666306'
p889
s((F-2.4
F2.4
tp890
(F200.0
F300.0
tp891
tp892
S'(0.849497*((1.+(0.01854*x))/(1.+(0.0153613*x))))+0.099112451076507568'
p893
s((F-2.4
F2.4
tp894
(F30.0
F50.0
tp895
tp896
S'(0.849497*((1.+(0.01854*x))/(1.+(0.0153613*x))))+0.079742610454559326'
p897
s((F-2.4
F2.4
tp898
(F50.0
F70.0
tp899
tp900
S'(0.849497*((1.+(0.01854*x))/(1.+(0.0153613*x))))+0.073544494807720184'
p901
ssg44
(dp902
((F-2.4
F2.4
tp903
(F300.0
F600.0
tp904
tp905
S'(0.849497*((1.+(0.01854*x))/(1.+(0.0153613*x))))+0.032944366335868835'
p906
s((F-2.4
F2.4
tp907
(F600.0
F1000.0
tp908
tp909
S'(0.849497*((1.+(0.01854*x))/(1.+(0.0153613*x))))+0.054636202752590179'
p910
s((F-2.4
F2.4
tp911
(F20.0
F30.0
tp912
tp913
S'(0.849497*((1.+(0.01854*x))/(1.+(0.0153613*x))))+0.034476730972528458'
p914
s((F-2.4
F2.4
tp915
(F70.0
F100.0
tp916
tp917
S'(0.849497*((1.+(0.01854*x))/(1.+(0.0153613*x))))+0.017111778259277344'
p918
s((F-2.4
F2.4
tp919
(F140.0
F200.0
tp920
tp921
S'(0.849497*((1.+(0.01854*x))/(1.+(0.0153613*x))))+0.016693713143467903'
p922
s((F-2.4
F2.4
tp923
(F100.0
F140.0
tp924
tp925
S'(0.849497*((1.+(0.01854*x))/(1.+(0.0153613*x))))+0.016918083652853966'
p926
s((F-2.4
F2.4
tp927
(F200.0
F300.0
tp928
tp929
S'(0.849497*((1.+(0.01854*x))/(1.+(0.0153613*x))))+0.02831784263253212'
p930
s((F-2.4
F2.4
tp931
(F30.0
F50.0
tp932
tp933
S'(0.849497*((1.+(0.01854*x))/(1.+(0.0153613*x))))+0.022783603519201279'
p934
s((F-2.4
F2.4
tp935
(F50.0
F70.0
tp936
tp937
S'(0.849497*((1.+(0.01854*x))/(1.+(0.0153613*x))))+0.021012712270021439'
p938
ssssS'comb'
p939
(dp940
S'down'
p941
(dp942
g1
(dp943
((F-2.4
F2.4
tp944
(F300.0
F600.0
tp945
tp946
S'(0.817647*((1.+(0.038703*x))/(1.+(0.0312388*x))))-0.10824859887361526'
p947
s((F-2.4
F2.4
tp948
(F600.0
F1000.0
tp949
tp950
S'(0.817647*((1.+(0.038703*x))/(1.+(0.0312388*x))))-0.18500012159347534'
p951
s((F-2.4
F2.4
tp952
(F20.0
F30.0
tp953
tp954
S'(0.817647*((1.+(0.038703*x))/(1.+(0.0312388*x))))-0.11806446313858032'
p955
s((F-2.4
F2.4
tp956
(F70.0
F100.0
tp957
tp958
S'(0.817647*((1.+(0.038703*x))/(1.+(0.0312388*x))))-0.047634456306695938'
p959
s((F-2.4
F2.4
tp960
(F140.0
F200.0
tp961
tp962
S'(0.817647*((1.+(0.038703*x))/(1.+(0.0312388*x))))-0.048323042690753937'
p963
s((F-2.4
F2.4
tp964
(F100.0
F140.0
tp965
tp966
S'(0.817647*((1.+(0.038703*x))/(1.+(0.0312388*x))))-0.04632849246263504'
p967
s((F-2.4
F2.4
tp968
(F200.0
F300.0
tp969
tp970
S'(0.817647*((1.+(0.038703*x))/(1.+(0.0312388*x))))-0.068715795874595642'
p971
s((F-2.4
F2.4
tp972
(F30.0
F50.0
tp973
tp974
S'(0.817647*((1.+(0.038703*x))/(1.+(0.0312388*x))))-0.054699532687664032'
p975
s((F-2.4
F2.4
tp976
(F50.0
F70.0
tp977
tp978
S'(0.817647*((1.+(0.038703*x))/(1.+(0.0312388*x))))-0.047356218099594116'
p979
ssg44
(dp980
((F-2.4
F2.4
tp981
(F300.0
F600.0
tp982
tp983
S'(0.817647*((1.+(0.038703*x))/(1.+(0.0312388*x))))-0.030928170308470726'
p984
s((F-2.4
F2.4
tp985
(F600.0
F1000.0
tp986
tp987
S'(0.817647*((1.+(0.038703*x))/(1.+(0.0312388*x))))-0.052857179194688797'
p988
s((F-2.4
F2.4
tp989
(F20.0
F30.0
tp990
tp991
S'(0.817647*((1.+(0.038703*x))/(1.+(0.0312388*x))))-0.033732704818248749'
p992
s((F-2.4
F2.4
tp993
(F70.0
F100.0
tp994
tp995
S'(0.817647*((1.+(0.038703*x))/(1.+(0.0312388*x))))-0.013609844259917736'
p996
s((F-2.4
F2.4
tp997
(F140.0
F200.0
tp998
tp999
S'(0.817647*((1.+(0.038703*x))/(1.+(0.0312388*x))))-0.013806583359837532'
p1000
s((F-2.4
F2.4
tp1001
(F100.0
F140.0
tp1002
tp1003
S'(0.817647*((1.+(0.038703*x))/(1.+(0.0312388*x))))-0.013236711733043194'
p1004
s((F-2.4
F2.4
tp1005
(F200.0
F300.0
tp1006
tp1007
S'(0.817647*((1.+(0.038703*x))/(1.+(0.0312388*x))))-0.019633084535598755'
p1008
s((F-2.4
F2.4
tp1009
(F30.0
F50.0
tp1010
tp1011
S'(0.817647*((1.+(0.038703*x))/(1.+(0.0312388*x))))-0.01562843844294548'
p1012
s((F-2.4
F2.4
tp1013
(F50.0
F70.0
tp1014
tp1015
S'(0.817647*((1.+(0.038703*x))/(1.+(0.0312388*x))))-0.013530348427593708'
p1016
sssS'central'
p1017
(dp1018
g1
(dp1019
((F-2.4
F2.4
tp1020
(F20.0
F1000.0
tp1021
tp1022
S'0.817647*((1.+(0.038703*x))/(1.+(0.0312388*x)))'
p1023
ssg44
(dp1024
((F-2.4
F2.4
tp1025
(F20.0
F1000.0
tp1026
tp1027
S'0.817647*((1.+(0.038703*x))/(1.+(0.0312388*x)))'
p1028
sssS'up'
p1029
(dp1030
g1
(dp1031
((F-2.4
F2.4
tp1032
(F300.0
F600.0
tp1033
tp1034
S'(0.817647*((1.+(0.038703*x))/(1.+(0.0312388*x))))+0.10824859887361526'
p1035
s((F-2.4
F2.4
tp1036
(F600.0
F1000.0
tp1037
tp1038
S'(0.817647*((1.+(0.038703*x))/(1.+(0.0312388*x))))+0.18500012159347534'
p1039
s((F-2.4
F2.4
tp1040
(F20.0
F30.0
tp1041
tp1042
S'(0.817647*((1.+(0.038703*x))/(1.+(0.0312388*x))))+0.11806446313858032'
p1043
s((F-2.4
F2.4
tp1044
(F70.0
F100.0
tp1045
tp1046
S'(0.817647*((1.+(0.038703*x))/(1.+(0.0312388*x))))+0.047634456306695938'
p1047
s((F-2.4
F2.4
tp1048
(F140.0
F200.0
tp1049
tp1050
S'(0.817647*((1.+(0.038703*x))/(1.+(0.0312388*x))))+0.048323042690753937'
p1051
s((F-2.4
F2.4
tp1052
(F100.0
F140.0
tp1053
tp1054
S'(0.817647*((1.+(0.038703*x))/(1.+(0.0312388*x))))+0.04632849246263504'
p1055
s((F-2.4
F2.4
tp1056
(F200.0
F300.0
tp1057
tp1058
S'(0.817647*((1.+(0.038703*x))/(1.+(0.0312388*x))))+0.068715795874595642'
p1059
s((F-2.4
F2.4
tp1060
(F30.0
F50.0
tp1061
tp1062
S'(0.817647*((1.+(0.038703*x))/(1.+(0.0312388*x))))+0.054699532687664032'
p1063
s((F-2.4
F2.4
tp1064
(F50.0
F70.0
tp1065
tp1066
S'(0.817647*((1.+(0.038703*x))/(1.+(0.0312388*x))))+0.047356218099594116'
p1067
ssg44
(dp1068
((F-2.4
F2.4
tp1069
(F300.0
F600.0
tp1070
tp1071
S'(0.817647*((1.+(0.038703*x))/(1.+(0.0312388*x))))+0.030928170308470726'
p1072
s((F-2.4
F2.4
tp1073
(F600.0
F1000.0
tp1074
tp1075
S'(0.817647*((1.+(0.038703*x))/(1.+(0.0312388*x))))+0.052857179194688797'
p1076
s((F-2.4
F2.4
tp1077
(F20.0
F30.0
tp1078
tp1079
S'(0.817647*((1.+(0.038703*x))/(1.+(0.0312388*x))))+0.033732704818248749'
p1080
s((F-2.4
F2.4
tp1081
(F70.0
F100.0
tp1082
tp1083
S'(0.817647*((1.+(0.038703*x))/(1.+(0.0312388*x))))+0.013609844259917736'
p1084
s((F-2.4
F2.4
tp1085
(F140.0
F200.0
tp1086
tp1087
S'(0.817647*((1.+(0.038703*x))/(1.+(0.0312388*x))))+0.013806583359837532'
p1088
s((F-2.4
F2.4
tp1089
(F100.0
F140.0
tp1090
tp1091
S'(0.817647*((1.+(0.038703*x))/(1.+(0.0312388*x))))+0.013236711733043194'
p1092
s((F-2.4
F2.4
tp1093
(F200.0
F300.0
tp1094
tp1095
S'(0.817647*((1.+(0.038703*x))/(1.+(0.0312388*x))))+0.019633084535598755'
p1096
s((F-2.4
F2.4
tp1097
(F30.0
F50.0
tp1098
tp1099
S'(0.817647*((1.+(0.038703*x))/(1.+(0.0312388*x))))+0.01562843844294548'
p1100
s((F-2.4
F2.4
tp1101
(F50.0
F70.0
tp1102
tp1103
S'(0.817647*((1.+(0.038703*x))/(1.+(0.0312388*x))))+0.013530348427593708'
p1104
ssssS'incl'
p1105
(dp1106
S'central'
p1107
(dp1108
g340
(dp1109
((F0.0
F2.4
tp1110
(F20.0
F1000.0
tp1111
tp1112
S'0.971945+163.215/(x*x)+0.000517836*x'
p1113
sssS'down_correlated'
p1114
(dp1115
g340
(dp1116
((F0.0
F2.4
tp1117
(F20.0
F1000.0
tp1118
tp1119
S'(0.971945+163.215/(x*x)+0.000517836*x)*(1-(0.219249+-0.000309762*x+2.26184e-07*x*x))'
p1120
sssS'down_uncorrelated'
p1121
(dp1122
g340
(dp1123
((F0.0
F2.4
tp1124
(F20.0
F1000.0
tp1125
tp1126
S'(0.971945+163.215/(x*x)+0.000517836*x)*(1-(0.190708))'
p1127
sssS'up'
p1128
(dp1129
g340
(dp1130
((F0.0
F2.4
tp1131
(F20.0
F1000.0
tp1132
tp1133
S'(0.971945+163.215/(x*x)+0.000517836*x)*(1+(0.291298+-0.000222983*x+1.69699e-07*x*x))'
p1134
sssS'down'
p1135
(dp1136
g340
(dp1137
((F0.0
F2.4
tp1138
(F20.0
F1000.0
tp1139
tp1140
S'(0.971945+163.215/(x*x)+0.000517836*x)*(1-(0.291298+-0.000222983*x+1.69699e-07*x*x))'
p1141
sssS'up_uncorrelated'
p1142
(dp1143
g340
(dp1144
((F0.0
F2.4
tp1145
(F20.0
F1000.0
tp1146
tp1147
S'(0.971945+163.215/(x*x)+0.000517836*x)*(1+(0.190708))'
p1148
sssS'up_correlated'
p1149
(dp1150
g340
(dp1151
((F0.0
F2.4
tp1152
(F20.0
F1000.0
tp1153
tp1154
S'(0.971945+163.215/(x*x)+0.000517836*x)*(1+(0.219249+-0.000309762*x+2.26184e-07*x*x))'
p1155
sssss.